; Function Attrs: mustprogress noinline uwtable
define hidden noundef ptr @_ZN6google8protobuf5Arena18CreateMaybeMessageIN12opencv_caffe21InnerProductParameterEJEEEPT_PS1_DpOT0_(ptr noundef %0) local_unnamed_addr #20 align 2 personality ptr @__gxx_personality_v0 {
  %2 = icmp eq ptr %0, null
  br i1 %2, label %_ZN6google8protobuf5Arena14InternalHelperIN12opencv_caffe21InnerProductParameterEE3NewEv.exit, label %5

_ZN6google8protobuf5Arena14InternalHelperIN12opencv_caffe21InnerProductParameterEE3NewEv.exit: ; preds = %1
  %3 = tail call noalias noundef nonnull dereferenceable(56) ptr @_Znwm(i64 noundef 56) #28
  %4 = getelementptr inbounds nuw i8, ptr %3, i64 8
  store i64 0, ptr %4, align 8, !tbaa !8
  br label %_ZN6google8protobuf5Arena21CreateMessageInternalIN12opencv_caffe21InnerProductParameterEEEPT_PS1_.exit

5:                                                ; preds = %1
  %6 = tail call noundef ptr @_ZN6google8protobuf5Arena23AllocateAlignedWithHookEmPKSt9type_info(ptr noundef nonnull align 8 dereferenceable(32) %0, i64 noundef 56, ptr noundef nonnull @_ZTIN12opencv_caffe21InnerProductParameterE)
  %7 = getelementptr inbounds nuw i8, ptr %6, i64 8
  %8 = ptrtoint ptr %0 to i64
  store i64 %8, ptr %7, align 8, !tbaa !8
  br label %_ZN6google8protobuf5Arena21CreateMessageInternalIN12opencv_caffe21InnerProductParameterEEEPT_PS1_.exit

_ZN6google8protobuf5Arena21CreateMessageInternalIN12opencv_caffe21InnerProductParameterEEEPT_PS1_.exit: ; preds = %_ZN6google8protobuf5Arena14InternalHelperIN12opencv_caffe21InnerProductParameterEE3NewEv.exit, %5
  %.sink4 = phi ptr [ %3, %_ZN6google8protobuf5Arena14InternalHelperIN12opencv_caffe21InnerProductParameterEE3NewEv.exit ], [ %6, %5 ]
  store ptr getelementptr inbounds nuw inrange(-16, 152) (i8, ptr @_ZTVN12opencv_caffe21InnerProductParameterE, i64 16), ptr %.sink4, align 8, !tbaa !11
  %.ptr.i = getelementptr inbounds nuw i8, ptr %.sink4, i64 16
  %9 = getelementptr inbounds nuw i8, ptr %.sink4, i64 45
  tail call void @llvm.memset.p0.i64(ptr noundef nonnull align 8 dereferenceable(29) %.ptr.i, i8 0, i64 29, i1 false)
  store i8 1, ptr %9, align 1, !tbaa !603
  %10 = getelementptr inbounds nuw i8, ptr %.sink4, i64 48
  store i32 1, ptr %10, align 8, !tbaa !604
  ret ptr %.sink4
}